target datalayout = "e-m:e-p270:32:32-p271:32:32-p272:64:64-i64:64-i128:128-f80:128-n8:16:32:64-S128"
target triple = "x86_64-pc-linux-gnu"

@.str = private unnamed_addr constant [6 x i8] c"const\00", align 1
@.str.1 = private unnamed_addr constant [9 x i8] c"volatile\00", align 1
@.str.2 = private unnamed_addr constant [9 x i8] c"restrict\00", align 1
@.str.4 = private unnamed_addr constant [12 x i8] c"unspecified\00", align 1
@.str.74 = private unnamed_addr constant [8 x i8] c"_Atomic\00", align 1
@.str.93 = private unnamed_addr constant [12 x i8] c"__unaligned\00", align 1

; Function Attrs: mustprogress nounwind uwtable
define dso_local noundef ptr @_ZN5clang8DeclSpec16getSpecifierNameENS0_2TQE(i32 noundef %0) #0 align 2 {
  %2 = alloca ptr, align 8
  %3 = alloca i32, align 4
  store i32 %0, ptr %3, align 4
  %4 = load i32, ptr %3, align 4
  switch i32 %4, label %11 [
    i32 0, label %5
    i32 1, label %6
    i32 2, label %7
    i32 4, label %8
    i32 16, label %9
    i32 8, label %10
  ]

5:                                                ; preds = %1
  store ptr @.str.4, ptr %2, align 8
  br label %12

6:                                                ; preds = %1
  store ptr @.str, ptr %2, align 8
  br label %12

7:                                                ; preds = %1
  store ptr @.str.2, ptr %2, align 8
  br label %12

8:                                                ; preds = %1
  store ptr @.str.1, ptr %2, align 8
  br label %12

9:                                                ; preds = %1
  store ptr @.str.74, ptr %2, align 8
  br label %12

10:                                               ; preds = %1
  store ptr @.str.93, ptr %2, align 8
  br label %12

11:                                               ; preds = %1
  unreachable

12:                                               ; preds = %10, %9, %8, %7, %6, %5
  %13 = load ptr, ptr %2, align 8
  ret ptr %13
}