; Function Attrs: mustprogress nofree norecurse nosync nounwind willreturn memory(none) uwtable
define dso_local noundef nonnull ptr @_ZN5clang8DeclSpec16getSpecifierNameENS0_2TQE(i32 noundef %0) local_unnamed_addr #10 align 2 {
  switch i32 %0, label %7 [
    i32 0, label %8
    i32 1, label %2
    i32 2, label %3
    i32 4, label %4
    i32 16, label %5
    i32 8, label %6
  ]

2:                                                ; preds = %1
  br label %8

3:                                                ; preds = %1
  br label %8

4:                                                ; preds = %1
  br label %8

5:                                                ; preds = %1
  br label %8

6:                                                ; preds = %1
  br label %8

7:                                                ; preds = %1
  unreachable

8:                                                ; preds = %1, %6, %5, %4, %3, %2
  %.0 = phi ptr [ @.str.93, %6 ], [ @.str.74, %5 ], [ @.str.1, %4 ], [ @.str.2, %3 ], [ @.str, %2 ], [ @.str.4, %1 ]
  ret ptr %.0
}